target datalayout = "e-m:e-p270:32:32-p271:32:32-p272:64:64-i64:64-i128:128-f80:128-n8:16:32:64-S128"
target triple = "x86_64-pc-linux-gnu"

%struct.Curl_cftype = type { ptr, i32, i32, ptr, ptr, ptr, ptr, ptr, ptr, ptr, ptr, ptr, ptr, ptr, ptr }
%struct.curltime = type { i64, i32 }
%struct.Curl_cfilter = type { ptr, ptr, ptr, ptr, i32, i8 }
%struct.ssl_connect_data = type { i32, i32, %struct.ssl_peer, ptr, ptr, %struct.cf_call_data, %struct.curltime, i32, i8 }
%struct.ssl_peer = type { ptr, ptr, ptr, i8 }
%struct.cf_call_data = type { ptr }

; Function Attrs: nounwind uwtable
define dso_local zeroext i1 @Curl_ssl_cf_is_proxy(ptr noundef %0) #0 {
  %2 = alloca ptr, align 8
  store ptr %0, ptr %2, align 8
  %3 = load ptr, ptr %2, align 8
  %4 = getelementptr inbounds %struct.Curl_cfilter, ptr %3, i32 0, i32 0
  %5 = load ptr, ptr %4, align 8
  %6 = icmp eq ptr %5, @Curl_cft_ssl_proxy
  ret i1 %6
}

; Function Attrs: nounwind uwtable
define internal i32 @ssl_cf_query(ptr noundef %0, ptr noundef %1, i32 noundef %2, ptr noundef %3, ptr noundef %4) #0 {
  %6 = alloca i32, align 4
  %7 = alloca ptr, align 8
  %8 = alloca ptr, align 8
  %9 = alloca i32, align 4
  %10 = alloca ptr, align 8
  %11 = alloca ptr, align 8
  %12 = alloca ptr, align 8
  %13 = alloca ptr, align 8
  store ptr %0, ptr %7, align 8
  store ptr %1, ptr %8, align 8
  store i32 %2, ptr %9, align 4
  store ptr %3, ptr %10, align 8
  store ptr %4, ptr %11, align 8
  %14 = load ptr, ptr %7, align 8
  %15 = getelementptr inbounds %struct.Curl_cfilter, ptr %14, i32 0, i32 2
  %16 = load ptr, ptr %15, align 8
  store ptr %16, ptr %12, align 8
  %17 = load i32, ptr %9, align 4
  switch i32 %17, label %34 [
    i32 5, label %18
  ]

18:                                               ; preds = %5
  %19 = load ptr, ptr %11, align 8
  store ptr %19, ptr %13, align 8
  %20 = load ptr, ptr %7, align 8
  %21 = getelementptr inbounds %struct.Curl_cfilter, ptr %20, i32 0, i32 5
  %22 = load i8, ptr %21, align 4
  %23 = and i8 %22, 1
  %24 = zext i8 %23 to i32
  %25 = icmp ne i32 %24, 0
  br i1 %25, label %26, label %33

26:                                               ; preds = %18
  %27 = load ptr, ptr %7, align 8
  %28 = call zeroext i1 @Curl_ssl_cf_is_proxy(ptr noundef %27)
  br i1 %28, label %33, label %29

29:                                               ; preds = %26
  %30 = load ptr, ptr %13, align 8
  %31 = load ptr, ptr %12, align 8
  %32 = getelementptr inbounds %struct.ssl_connect_data, ptr %31, i32 0, i32 6
  call void @llvm.memcpy.p0.p0.i64(ptr align 8 %30, ptr align 8 %32, i64 16, i1 false)
  br label %33

33:                                               ; preds = %29, %26, %18
  store i32 0, ptr %6, align 4
  br label %59

34:                                               ; preds = %5
  br label %35

35:                                               ; preds = %34
  %36 = load ptr, ptr %7, align 8
  %37 = getelementptr inbounds %struct.Curl_cfilter, ptr %36, i32 0, i32 1
  %38 = load ptr, ptr %37, align 8
  %39 = icmp ne ptr %38, null
  br i1 %39, label %40, label %56

40:                                               ; preds = %35
  %41 = load ptr, ptr %7, align 8
  %42 = getelementptr inbounds %struct.Curl_cfilter, ptr %41, i32 0, i32 1
  %43 = load ptr, ptr %42, align 8
  %44 = getelementptr inbounds %struct.Curl_cfilter, ptr %43, i32 0, i32 0
  %45 = load ptr, ptr %44, align 8
  %46 = getelementptr inbounds %struct.Curl_cftype, ptr %45, i32 0, i32 14
  %47 = load ptr, ptr %46, align 8
  %48 = load ptr, ptr %7, align 8
  %49 = getelementptr inbounds %struct.Curl_cfilter, ptr %48, i32 0, i32 1
  %50 = load ptr, ptr %49, align 8
  %51 = load ptr, ptr %8, align 8
  %52 = load i32, ptr %9, align 4
  %53 = load ptr, ptr %10, align 8
  %54 = load ptr, ptr %11, align 8
  %55 = call i32 %47(ptr noundef %50, ptr noundef %51, i32 noundef %52, ptr noundef %53, ptr noundef %54)
  br label %57

56:                                               ; preds = %35
  br label %57

57:                                               ; preds = %56, %40
  %58 = phi i32 [ %55, %40 ], [ 48, %56 ]
  store i32 %58, ptr %6, align 4
  br label %59

59:                                               ; preds = %57, %33
  %60 = load i32, ptr %6, align 4
  ret i32 %60
}