; Function Attrs: nounwind uwtable
define internal i32 @ssl_cf_query(ptr noundef readonly captures(none) %0, ptr noundef %1, i32 noundef %2, ptr noundef %3, ptr noundef %4) #2 {
  %6 = getelementptr inbounds nuw i8, ptr %0, i64 16
  %7 = load ptr, ptr %6, align 8
  %cond = icmp eq i32 %2, 5
  br i1 %cond, label %8, label %17

8:                                                ; preds = %5
  %9 = getelementptr inbounds nuw i8, ptr %0, i64 36
  %10 = load i8, ptr %9, align 4
  %11 = and i8 %10, 1
  %.not16 = icmp eq i8 %11, 0
  br i1 %.not16, label %25, label %12

12:                                               ; preds = %8
  %13 = load ptr, ptr %0, align 8
  %14 = icmp eq ptr %13, @Curl_cft_ssl_proxy
  br i1 %14, label %25, label %15

15:                                               ; preds = %12
  %16 = getelementptr inbounds nuw i8, ptr %7, i64 64
  tail call void @llvm.memcpy.p0.p0.i64(ptr noundef nonnull align 8 dereferenceable(16) %4, ptr noundef nonnull align 8 dereferenceable(16) %16, i64 16, i1 false)
  br label %25

17:                                               ; preds = %5
  %18 = getelementptr inbounds nuw i8, ptr %0, i64 8
  %19 = load ptr, ptr %18, align 8
  %.not = icmp eq ptr %19, null
  br i1 %.not, label %25, label %20

20:                                               ; preds = %17
  %21 = load ptr, ptr %19, align 8
  %22 = getelementptr inbounds nuw i8, ptr %21, i64 104
  %23 = load ptr, ptr %22, align 8
  %24 = tail call i32 %23(ptr noundef nonnull %19, ptr noundef %1, i32 noundef %2, ptr noundef %3, ptr noundef %4) #18
  br label %25

25:                                               ; preds = %20, %17, %8, %12, %15
  %.0 = phi i32 [ 0, %15 ], [ 0, %12 ], [ 0, %8 ], [ %24, %20 ], [ 48, %17 ]
  ret i32 %.0
}